; Function Attrs: mustprogress uwtable
define dso_local void @_ZN21btSimpleDynamicsWorld12addRigidBodyEP11btRigidBodyii(ptr noundef nonnull align 8 dereferenceable(308) %this, ptr noundef nonnull %body, i32 noundef %group, i32 noundef %mask) unnamed_addr #1 align 2 {
entry:
  %m_gravity = getelementptr inbounds i8, ptr %this, i64 292
  tail call void @_ZN11btRigidBody10setGravityERK9btVector3(ptr noundef nonnull align 8 dereferenceable(744) %body, ptr noundef nonnull align 4 dereferenceable(16) %m_gravity)
  %m_collisionShape.i = getelementptr inbounds i8, ptr %body, i64 200
  %0 = load ptr, ptr %m_collisionShape.i, align 8
  %tobool.not = icmp eq ptr %0, null
  br i1 %tobool.not, label %if.end, label %if.then

if.then:                                          ; preds = %entry
  %vtable = load ptr, ptr %this, align 8
  %vfn = getelementptr inbounds i8, ptr %vtable, i64 72
  %1 = load ptr, ptr %vfn, align 8
  tail call void %1(ptr noundef nonnull align 8 dereferenceable(121) %this, ptr noundef nonnull %body, i32 noundef %group, i32 noundef %mask)
  br label %if.end

if.end:                                           ; preds = %if.then, %entry
  ret void
}